; Function Attrs: nounwind uwtable
define dso_local void @config_init(ptr noundef initializes((0, 1464)) %0) local_unnamed_addr #0 {
  %2 = getelementptr inbounds nuw i8, ptr %0, i64 200
  tail call void @llvm.memset.p0.i64(ptr noundef nonnull align 8 dereferenceable(1464) %0, i8 0, i64 1464, i1 false)
  store i64 50, ptr %2, align 8, !tbaa !4
  %3 = getelementptr inbounds nuw i8, ptr %0, i64 104
  store i8 0, ptr %3, align 8, !tbaa !23
  %4 = getelementptr inbounds nuw i8, ptr %0, i64 1088
  store i8 1, ptr %4, align 8, !tbaa !24
  %5 = getelementptr inbounds nuw i8, ptr %0, i64 1280
  store i64 200, ptr %5, align 8, !tbaa !25
  %6 = getelementptr inbounds nuw i8, ptr %0, i64 853
  store i8 1, ptr %6, align 1, !tbaa !26
  %7 = getelementptr inbounds nuw i8, ptr %0, i64 136
  tail call void @curlx_dyn_init(ptr noundef nonnull %7, i64 noundef 17179869184) #4
  ret void
}